target datalayout = "e-m:e-p270:32:32-p271:32:32-p272:64:64-i64:64-i128:128-f80:128-n8:16:32:64-S128"
target triple = "x86_64-pc-linux-gnu"

%struct.slurmd_config = type { ptr, ptr, i32, [4096 x i8], ptr, ptr, ptr, ptr, i16, i16, i16, i16, ptr, i16, i64, i16, i16, i16, i16, i16, i16, i16, i16, i16, i16, i16, i64, i64, i32, i32, i16, ptr, ptr, ptr, i32, ptr, ptr, ptr, ptr, ptr, ptr, ptr, ptr, ptr, ptr, i32, ptr, ptr, i16, i32, i32, %struct.log_options_t, i32, i16, i64, i8, i8, i8, i8, i8, %union.pthread_mutex_t, i16, ptr, %union.pthread_cond_t, ptr, %union.pthread_cond_t, i8, i8, ptr, ptr }
%struct.log_options_t = type { i32, i32, i32, i8, i8, i8, i32 }
%union.pthread_mutex_t = type { %struct.__pthread_mutex_s }
%struct.__pthread_mutex_s = type { i32, i32, i32, i32, i32, i16, i16, %struct.__pthread_internal_list }
%struct.__pthread_internal_list = type { ptr, ptr }
%union.pthread_cond_t = type { %struct.__pthread_cond_s }
%struct.__pthread_cond_s = type { %union.__atomic_wide_counter, %union.__atomic_wide_counter, [2 x i32], [2 x i32], i32, i32, [2 x i32] }
%union.__atomic_wide_counter = type { i64 }
%struct.slurm_step_id_msg = type { i64, i32, i32, i32 }
%struct.stepd_step_rec_t = type { ptr, ptr, i32, %union.pthread_cond_t, %union.pthread_mutex_t, %struct.slurm_step_id_msg, i32, i32, i32, i32, i32, i32, ptr, ptr, i32, i32, ptr, i32, i32, i32, i32, i32, ptr, ptr, ptr, ptr, i32, i32, i64, i64, i16, i32, ptr, ptr, ptr, i32, ptr, i32, ptr, i32, ptr, i16, i32, i32, i32, ptr, i32, ptr, ptr, ptr, ptr, i32, i32, ptr, ptr, i8, i8, i8, i64, i32, ptr, ptr, ptr, ptr, ptr, ptr, ptr, ptr, ptr, ptr, i32, i32, ptr, i8, %union.pthread_cond_t, %union.pthread_mutex_t, i64, ptr, i32, i32, i32, ptr, i64, ptr, ptr, i8, ptr, i16, ptr, ptr, ptr, ptr, ptr, ptr, i64, ptr, i64, ptr, i16, i8, i16, i32, ptr, i16, ptr, ptr, i16, ptr, ptr, ptr, i8 }

@conf = dso_local global ptr null, align 8
@.str.61 = private unnamed_addr constant [13 x i8] c"SLURM_JOB_ID\00", align 1
@.str.62 = private unnamed_addr constant [3 x i8] c"%u\00", align 1
@.str.63 = private unnamed_addr constant [11 x i8] c"SLURM_CONF\00", align 1
@.str.64 = private unnamed_addr constant [3 x i8] c"%s\00", align 1
@.str.65 = private unnamed_addr constant [16 x i8] c"SLURMD_NODENAME\00", align 1
@.str.66 = private unnamed_addr constant [25 x i8] c"SLURM_JOB_MOUNTPOINT_SRC\00", align 1
@.str.67 = private unnamed_addr constant [17 x i8] c"SLURM_HET_JOB_ID\00", align 1
@.str.68 = private unnamed_addr constant [14 x i8] c"SLURM_JOB_GID\00", align 1
@.str.69 = private unnamed_addr constant [14 x i8] c"SLURM_JOB_UID\00", align 1
@.str.70 = private unnamed_addr constant [15 x i8] c"SLURM_JOB_USER\00", align 1
@.str.71 = private unnamed_addr constant [19 x i8] c"SLURM_NODE_ALIASES\00", align 1
@.str.72 = private unnamed_addr constant [19 x i8] c"SLURM_JOB_WORK_DIR\00", align 1
@.str.73 = private unnamed_addr constant [9 x i8] c"SLURM_NS\00", align 1

; Function Attrs: nounwind uwtable
define internal ptr @_setup_script_env(i32 noundef %0, ptr noundef %1, ptr noundef %2, ptr noundef %3) #0 {
  %5 = alloca i32, align 4
  %6 = alloca ptr, align 8
  %7 = alloca ptr, align 8
  %8 = alloca ptr, align 8
  %9 = alloca ptr, align 8
  store i32 %0, ptr %5, align 4
  store ptr %1, ptr %6, align 8
  store ptr %2, ptr %7, align 8
  store ptr %3, ptr %8, align 8
  call void @llvm.lifetime.start.p0(i64 8, ptr %9) #8
  %10 = call ptr @slurm_env_array_create()
  store ptr %10, ptr %9, align 8
  %11 = load i32, ptr %5, align 4
  %12 = call i32 (ptr, ptr, ptr, ...) @slurm_env_array_overwrite_fmt(ptr noundef %9, ptr noundef @.str.61, ptr noundef @.str.62, i32 noundef %11)
  %13 = load ptr, ptr @conf, align 8
  %14 = getelementptr inbounds nuw %struct.slurmd_config, ptr %13, i32 0, i32 39
  %15 = load ptr, ptr %14, align 8
  %16 = call i32 (ptr, ptr, ptr, ...) @slurm_env_array_overwrite_fmt(ptr noundef %9, ptr noundef @.str.63, ptr noundef @.str.64, ptr noundef %15)
  %17 = load ptr, ptr @conf, align 8
  %18 = getelementptr inbounds nuw %struct.slurmd_config, ptr %17, i32 0, i32 35
  %19 = load ptr, ptr %18, align 8
  %20 = call i32 (ptr, ptr, ptr, ...) @slurm_env_array_overwrite_fmt(ptr noundef %9, ptr noundef @.str.65, ptr noundef @.str.64, ptr noundef %19)
  %21 = load ptr, ptr %7, align 8
  %22 = icmp ne ptr %21, null
  br i1 %22, label %23, label %26

23:                                               ; preds = %4
  %24 = load ptr, ptr %7, align 8
  %25 = call i32 (ptr, ptr, ptr, ...) @slurm_env_array_overwrite_fmt(ptr noundef %9, ptr noundef @.str.66, ptr noundef @.str.64, ptr noundef %24)
  br label %26

26:                                               ; preds = %23, %4
  %27 = load ptr, ptr %6, align 8
  %28 = icmp ne ptr %27, null
  br i1 %28, label %29, label %77

29:                                               ; preds = %26
  %30 = load ptr, ptr %6, align 8
  %31 = getelementptr inbounds nuw %struct.stepd_step_rec_t, ptr %30, i32 0, i32 14
  %32 = load i32, ptr %31, align 8
  %33 = icmp ne i32 %32, 0
  br i1 %33, label %34, label %44

34:                                               ; preds = %29
  %35 = load ptr, ptr %6, align 8
  %36 = getelementptr inbounds nuw %struct.stepd_step_rec_t, ptr %35, i32 0, i32 14
  %37 = load i32, ptr %36, align 8
  %38 = icmp ne i32 %37, -2
  br i1 %38, label %39, label %44

39:                                               ; preds = %34
  %40 = load ptr, ptr %6, align 8
  %41 = getelementptr inbounds nuw %struct.stepd_step_rec_t, ptr %40, i32 0, i32 14
  %42 = load i32, ptr %41, align 8
  %43 = call i32 (ptr, ptr, ptr, ...) @slurm_env_array_overwrite_fmt(ptr noundef %9, ptr noundef @.str.67, ptr noundef @.str.62, i32 noundef %42)
  br label %44

44:                                               ; preds = %39, %34, %29
  %45 = load ptr, ptr %6, align 8
  %46 = getelementptr inbounds nuw %struct.stepd_step_rec_t, ptr %45, i32 0, i32 51
  %47 = load i32, ptr %46, align 8
  %48 = call i32 (ptr, ptr, ptr, ...) @slurm_env_array_overwrite_fmt(ptr noundef %9, ptr noundef @.str.68, ptr noundef @.str.62, i32 noundef %47)
  %49 = load ptr, ptr %6, align 8
  %50 = getelementptr inbounds nuw %struct.stepd_step_rec_t, ptr %49, i32 0, i32 46
  %51 = load i32, ptr %50, align 8
  %52 = call i32 (ptr, ptr, ptr, ...) @slurm_env_array_overwrite_fmt(ptr noundef %9, ptr noundef @.str.69, ptr noundef @.str.62, i32 noundef %51)
  %53 = load ptr, ptr %6, align 8
  %54 = getelementptr inbounds nuw %struct.stepd_step_rec_t, ptr %53, i32 0, i32 47
  %55 = load ptr, ptr %54, align 8
  %56 = call i32 (ptr, ptr, ptr, ...) @slurm_env_array_overwrite_fmt(ptr noundef %9, ptr noundef @.str.70, ptr noundef @.str.64, ptr noundef %55)
  %57 = load ptr, ptr %6, align 8
  %58 = getelementptr inbounds nuw %struct.stepd_step_rec_t, ptr %57, i32 0, i32 0
  %59 = load ptr, ptr %58, align 8
  %60 = icmp ne ptr %59, null
  br i1 %60, label %61, label %66

61:                                               ; preds = %44
  %62 = load ptr, ptr %6, align 8
  %63 = getelementptr inbounds nuw %struct.stepd_step_rec_t, ptr %62, i32 0, i32 0
  %64 = load ptr, ptr %63, align 8
  %65 = call i32 (ptr, ptr, ptr, ...) @slurm_env_array_overwrite_fmt(ptr noundef %9, ptr noundef @.str.71, ptr noundef @.str.64, ptr noundef %64)
  br label %66

66:                                               ; preds = %61, %44
  %67 = load ptr, ptr %6, align 8
  %68 = getelementptr inbounds nuw %struct.stepd_step_rec_t, ptr %67, i32 0, i32 34
  %69 = load ptr, ptr %68, align 8
  %70 = icmp ne ptr %69, null
  br i1 %70, label %71, label %76

71:                                               ; preds = %66
  %72 = load ptr, ptr %6, align 8
  %73 = getelementptr inbounds nuw %struct.stepd_step_rec_t, ptr %72, i32 0, i32 34
  %74 = load ptr, ptr %73, align 8
  %75 = call i32 (ptr, ptr, ptr, ...) @slurm_env_array_overwrite_fmt(ptr noundef %9, ptr noundef @.str.72, ptr noundef @.str.64, ptr noundef %74)
  br label %76

76:                                               ; preds = %71, %66
  br label %77

77:                                               ; preds = %76, %26
  %78 = load ptr, ptr %8, align 8
  %79 = icmp ne ptr %78, null
  br i1 %79, label %80, label %83

80:                                               ; preds = %77
  %81 = load ptr, ptr %8, align 8
  %82 = call i32 (ptr, ptr, ptr, ...) @slurm_env_array_overwrite_fmt(ptr noundef %9, ptr noundef @.str.73, ptr noundef @.str.64, ptr noundef %81)
  br label %83

83:                                               ; preds = %80, %77
  %84 = load ptr, ptr %9, align 8
  call void @llvm.lifetime.end.p0(i64 8, ptr %9) #8
  ret ptr %84
}