; Function Attrs: nounwind uwtable
define internal fastcc ptr @_setup_script_env(i32 noundef %0, ptr noundef readonly captures(address_is_null) %1, ptr noundef %2, ptr noundef %3) unnamed_addr #0 {
  %5 = alloca ptr, align 8
  call void @llvm.lifetime.start.p0(i64 8, ptr nonnull %5) #12
  %6 = tail call ptr @slurm_env_array_create() #12
  store ptr %6, ptr %5, align 8
  %7 = call i32 (ptr, ptr, ptr, ...) @slurm_env_array_overwrite_fmt(ptr noundef nonnull %5, ptr noundef nonnull @.str.61, ptr noundef nonnull @.str.62, i32 noundef %0) #12
  %8 = load ptr, ptr @conf, align 8
  %9 = getelementptr inbounds nuw i8, ptr %8, i64 4304
  %10 = load ptr, ptr %9, align 8
  %11 = call i32 (ptr, ptr, ptr, ...) @slurm_env_array_overwrite_fmt(ptr noundef nonnull %5, ptr noundef nonnull @.str.63, ptr noundef nonnull @.str.64, ptr noundef %10) #12
  %12 = load ptr, ptr @conf, align 8
  %13 = getelementptr inbounds nuw i8, ptr %12, i64 4272
  %14 = load ptr, ptr %13, align 8
  %15 = call i32 (ptr, ptr, ptr, ...) @slurm_env_array_overwrite_fmt(ptr noundef nonnull %5, ptr noundef nonnull @.str.65, ptr noundef nonnull @.str.64, ptr noundef %14) #12
  %.not = icmp eq ptr %2, null
  br i1 %.not, label %18, label %16

16:                                               ; preds = %4
  %17 = call i32 (ptr, ptr, ptr, ...) @slurm_env_array_overwrite_fmt(ptr noundef nonnull %5, ptr noundef nonnull @.str.66, ptr noundef nonnull @.str.64, ptr noundef nonnull %2) #12
  br label %18

18:                                               ; preds = %16, %4
  %.not20 = icmp eq ptr %1, null
  br i1 %.not20, label %42, label %19

19:                                               ; preds = %18
  %20 = getelementptr inbounds nuw i8, ptr %1, i64 176
  %21 = load i32, ptr %20, align 8
  switch i32 %21, label %22 [
    i32 0, label %24
    i32 -2, label %24
  ]

22:                                               ; preds = %19
  %23 = call i32 (ptr, ptr, ptr, ...) @slurm_env_array_overwrite_fmt(ptr noundef nonnull %5, ptr noundef nonnull @.str.67, ptr noundef nonnull @.str.62, i32 noundef %21) #12
  br label %24

24:                                               ; preds = %19, %19, %22
  %25 = getelementptr inbounds nuw i8, ptr %1, i64 416
  %26 = load i32, ptr %25, align 8
  %27 = call i32 (ptr, ptr, ptr, ...) @slurm_env_array_overwrite_fmt(ptr noundef nonnull %5, ptr noundef nonnull @.str.68, ptr noundef nonnull @.str.62, i32 noundef %26) #12
  %28 = getelementptr inbounds nuw i8, ptr %1, i64 376
  %29 = load i32, ptr %28, align 8
  %30 = call i32 (ptr, ptr, ptr, ...) @slurm_env_array_overwrite_fmt(ptr noundef nonnull %5, ptr noundef nonnull @.str.69, ptr noundef nonnull @.str.62, i32 noundef %29) #12
  %31 = getelementptr inbounds nuw i8, ptr %1, i64 384
  %32 = load ptr, ptr %31, align 8
  %33 = call i32 (ptr, ptr, ptr, ...) @slurm_env_array_overwrite_fmt(ptr noundef nonnull %5, ptr noundef nonnull @.str.70, ptr noundef nonnull @.str.64, ptr noundef %32) #12
  %34 = load ptr, ptr %1, align 8
  %.not23 = icmp eq ptr %34, null
  br i1 %.not23, label %37, label %35

35:                                               ; preds = %24
  %36 = call i32 (ptr, ptr, ptr, ...) @slurm_env_array_overwrite_fmt(ptr noundef nonnull %5, ptr noundef nonnull @.str.71, ptr noundef nonnull @.str.64, ptr noundef nonnull %34) #12
  br label %37

37:                                               ; preds = %35, %24
  %38 = getelementptr inbounds nuw i8, ptr %1, i64 296
  %39 = load ptr, ptr %38, align 8
  %.not24 = icmp eq ptr %39, null
  br i1 %.not24, label %42, label %40

40:                                               ; preds = %37
  %41 = call i32 (ptr, ptr, ptr, ...) @slurm_env_array_overwrite_fmt(ptr noundef nonnull %5, ptr noundef nonnull @.str.72, ptr noundef nonnull @.str.64, ptr noundef nonnull %39) #12
  br label %42

42:                                               ; preds = %37, %40, %18
  %.not25 = icmp eq ptr %3, null
  br i1 %.not25, label %45, label %43

43:                                               ; preds = %42
  %44 = call i32 (ptr, ptr, ptr, ...) @slurm_env_array_overwrite_fmt(ptr noundef nonnull %5, ptr noundef nonnull @.str.73, ptr noundef nonnull @.str.64, ptr noundef nonnull %3) #12
  br label %45

45:                                               ; preds = %43, %42
  %46 = load ptr, ptr %5, align 8
  call void @llvm.lifetime.end.p0(i64 8, ptr nonnull %5) #12
  ret ptr %46
}